target datalayout = "e-m:e-p270:32:32-p271:32:32-p272:64:64-i64:64-i128:128-f80:128-n8:16:32:64-S128"
target triple = "x86_64-pc-linux-gnu"

%struct.Aig_Man_t_ = type { ptr, ptr, ptr, ptr, ptr, ptr, ptr, %struct.Aig_Obj_t_, i32, i32, i32, i32, i32, i32, [7 x i32], i32, ptr, i32, ptr, i32, ptr, i32, i32, i32, ptr, i32, i32, i32, i32, i32, ptr, ptr, i32, ptr, ptr, i32, ptr, ptr, i32, i32, i32, ptr, ptr, ptr, ptr, ptr, ptr, ptr, ptr, ptr, ptr, ptr, ptr, ptr, ptr, i32, ptr, ptr, ptr, ptr, i32, i64, i64, i64, ptr, ptr }
%struct.Aig_Obj_t_ = type { %union.anon, ptr, ptr, i64, i32, i32, %union.anon.0 }
%union.anon = type { ptr }
%union.anon.0 = type { ptr }
%struct.Vec_Int_t_ = type { i32, i32, ptr }
%struct.Vec_Ptr_t_ = type { i32, i32, ptr }
%struct.Vec_Vec_t_ = type { i32, i32, ptr }
%struct.timespec = type { i64, i64 }

@.str.12 = private unnamed_addr constant [5 x i8] c"Time\00", align 1
@.str.13 = private unnamed_addr constant [36 x i8] c"Reduced %d outputs to %d outputs.  \00", align 1
@.str.14 = private unnamed_addr constant [21 x i8] c"Nontrivial classes:\0A\00", align 1
@.str.17 = private unnamed_addr constant [5 x i8] c"%s =\00", align 1
@.str.18 = private unnamed_addr constant [11 x i8] c"%9.2f sec\0A\00", align 1
@.str.21 = private unnamed_addr constant [9 x i8] c" %4d : {\00", align 1
@.str.22 = private unnamed_addr constant [4 x i8] c" %d\00", align 1
@.str.23 = private unnamed_addr constant [4 x i8] c" }\0A\00", align 1

; Function Attrs: inlinehint nounwind uwtable
define internal i32 @Vec_VecLevelSize(ptr noundef %0, i32 noundef %1) #2 {
  %3 = alloca ptr, align 8
  %4 = alloca i32, align 4
  store ptr %0, ptr %3, align 8, !tbaa !81
  store i32 %1, ptr %4, align 4, !tbaa !12
  %5 = load ptr, ptr %3, align 8, !tbaa !81
  %6 = getelementptr inbounds nuw %struct.Vec_Vec_t_, ptr %5, i32 0, i32 2
  %7 = load ptr, ptr %6, align 8, !tbaa !83
  %8 = load i32, ptr %4, align 4, !tbaa !12
  %9 = sext i32 %8 to i64
  %10 = getelementptr inbounds ptr, ptr %7, i64 %9
  %11 = load ptr, ptr %10, align 8, !tbaa !40
  %12 = call i32 @Vec_PtrSize(ptr noundef %11)
  ret i32 %12
}

; Function Attrs: inlinehint nounwind uwtable
define internal i32 @Vec_IntEntry(ptr noundef %0, i32 noundef %1) #2 {
  %3 = alloca ptr, align 8
  %4 = alloca i32, align 4
  store ptr %0, ptr %3, align 8, !tbaa !8
  store i32 %1, ptr %4, align 4, !tbaa !12
  %5 = load ptr, ptr %3, align 8, !tbaa !8
  %6 = getelementptr inbounds nuw %struct.Vec_Int_t_, ptr %5, i32 0, i32 2
  %7 = load ptr, ptr %6, align 8, !tbaa !34
  %8 = load i32, ptr %4, align 4, !tbaa !12
  %9 = sext i32 %8 to i64
  %10 = getelementptr inbounds i32, ptr %7, i64 %9
  %11 = load i32, ptr %10, align 4, !tbaa !12
  ret i32 %11
}

; Function Attrs: inlinehint nounwind uwtable
define internal i32 @Vec_IntSize(ptr noundef %0) #2 {
  %2 = alloca ptr, align 8
  store ptr %0, ptr %2, align 8, !tbaa !8
  %3 = load ptr, ptr %2, align 8, !tbaa !8
  %4 = getelementptr inbounds nuw %struct.Vec_Int_t_, ptr %3, i32 0, i32 1
  %5 = load i32, ptr %4, align 4, !tbaa !31
  ret i32 %5
}

; Function Attrs: inlinehint nounwind uwtable
define internal ptr @Vec_VecEntryInt(ptr noundef %0, i32 noundef %1) #2 {
  %3 = alloca ptr, align 8
  %4 = alloca i32, align 4
  store ptr %0, ptr %3, align 8, !tbaa !81
  store i32 %1, ptr %4, align 4, !tbaa !12
  %5 = load ptr, ptr %3, align 8, !tbaa !81
  %6 = getelementptr inbounds nuw %struct.Vec_Vec_t_, ptr %5, i32 0, i32 2
  %7 = load ptr, ptr %6, align 8, !tbaa !83
  %8 = load i32, ptr %4, align 4, !tbaa !12
  %9 = sext i32 %8 to i64
  %10 = getelementptr inbounds ptr, ptr %7, i64 %9
  %11 = load ptr, ptr %10, align 8, !tbaa !40
  ret ptr %11
}

; Function Attrs: inlinehint nounwind uwtable
define internal i32 @Vec_VecSize(ptr noundef %0) #2 {
  %2 = alloca ptr, align 8
  store ptr %0, ptr %2, align 8, !tbaa !81
  %3 = load ptr, ptr %2, align 8, !tbaa !81
  %4 = getelementptr inbounds nuw %struct.Vec_Vec_t_, ptr %3, i32 0, i32 1
  %5 = load i32, ptr %4, align 4, !tbaa !85
  ret i32 %5
}

; Function Attrs: inlinehint nounwind uwtable
define internal void @Vec_VecPrintInt(ptr noundef %0, i32 noundef %1) #2 {
  %3 = alloca ptr, align 8
  %4 = alloca i32, align 4
  %5 = alloca i32, align 4
  %6 = alloca i32, align 4
  %7 = alloca i32, align 4
  store ptr %0, ptr %3, align 8, !tbaa !81
  store i32 %1, ptr %4, align 4, !tbaa !12
  call void @llvm.lifetime.start.p0(i64 4, ptr %5) #9
  call void @llvm.lifetime.start.p0(i64 4, ptr %6) #9
  call void @llvm.lifetime.start.p0(i64 4, ptr %7) #9
  store i32 0, ptr %5, align 4, !tbaa !12
  br label %8

8:                                                ; preds = %60, %2
  %9 = load i32, ptr %5, align 4, !tbaa !12
  %10 = load ptr, ptr %3, align 8, !tbaa !81
  %11 = call i32 @Vec_VecSize(ptr noundef %10)
  %12 = icmp slt i32 %9, %11
  br i1 %12, label %13, label %63

13:                                               ; preds = %8
  store i32 0, ptr %6, align 4, !tbaa !12
  br label %14

14:                                               ; preds = %56, %13
  %15 = load i32, ptr %6, align 4, !tbaa !12
  %16 = load ptr, ptr %3, align 8, !tbaa !81
  %17 = load i32, ptr %5, align 4, !tbaa !12
  %18 = call ptr @Vec_VecEntryInt(ptr noundef %16, i32 noundef %17)
  %19 = call i32 @Vec_IntSize(ptr noundef %18)
  %20 = icmp slt i32 %15, %19
  br i1 %20, label %21, label %27

21:                                               ; preds = %14
  %22 = load ptr, ptr %3, align 8, !tbaa !81
  %23 = load i32, ptr %5, align 4, !tbaa !12
  %24 = call ptr @Vec_VecEntryInt(ptr noundef %22, i32 noundef %23)
  %25 = load i32, ptr %6, align 4, !tbaa !12
  %26 = call i32 @Vec_IntEntry(ptr noundef %24, i32 noundef %25)
  store i32 %26, ptr %7, align 4, !tbaa !12
  br label %27

27:                                               ; preds = %21, %14
  %28 = phi i1 [ false, %14 ], [ true, %21 ]
  br i1 %28, label %29, label %59

29:                                               ; preds = %27
  %30 = load i32, ptr %4, align 4, !tbaa !12
  %31 = icmp ne i32 %30, 0
  br i1 %31, label %32, label %38

32:                                               ; preds = %29
  %33 = load ptr, ptr %3, align 8, !tbaa !81
  %34 = load i32, ptr %5, align 4, !tbaa !12
  %35 = call i32 @Vec_VecLevelSize(ptr noundef %33, i32 noundef %34)
  %36 = icmp eq i32 %35, 1
  br i1 %36, label %37, label %38

37:                                               ; preds = %32
  br label %59

38:                                               ; preds = %32, %29
  %39 = load i32, ptr %6, align 4, !tbaa !12
  %40 = icmp eq i32 %39, 0
  br i1 %40, label %41, label %44

41:                                               ; preds = %38
  %42 = load i32, ptr %5, align 4, !tbaa !12
  %43 = call i32 (ptr, ...) @printf(ptr noundef @.str.21, i32 noundef %42)
  br label %44

44:                                               ; preds = %41, %38
  %45 = load i32, ptr %7, align 4, !tbaa !12
  %46 = call i32 (ptr, ...) @printf(ptr noundef @.str.22, i32 noundef %45)
  %47 = load i32, ptr %6, align 4, !tbaa !12
  %48 = load ptr, ptr %3, align 8, !tbaa !81
  %49 = load i32, ptr %5, align 4, !tbaa !12
  %50 = call i32 @Vec_VecLevelSize(ptr noundef %48, i32 noundef %49)
  %51 = sub nsw i32 %50, 1
  %52 = icmp eq i32 %47, %51
  br i1 %52, label %53, label %55

53:                                               ; preds = %44
  %54 = call i32 (ptr, ...) @printf(ptr noundef @.str.23)
  br label %55

55:                                               ; preds = %53, %44
  br label %56

56:                                               ; preds = %55
  %57 = load i32, ptr %6, align 4, !tbaa !12
  %58 = add nsw i32 %57, 1
  store i32 %58, ptr %6, align 4, !tbaa !12
  br label %14, !llvm.loop !86

59:                                               ; preds = %37, %27
  br label %60

60:                                               ; preds = %59
  %61 = load i32, ptr %5, align 4, !tbaa !12
  %62 = add nsw i32 %61, 1
  store i32 %62, ptr %5, align 4, !tbaa !12
  br label %8, !llvm.loop !87

63:                                               ; preds = %8
  call void @llvm.lifetime.end.p0(i64 4, ptr %7) #9
  call void @llvm.lifetime.end.p0(i64 4, ptr %6) #9
  call void @llvm.lifetime.end.p0(i64 4, ptr %5) #9
  ret void
}

; Function Attrs: inlinehint nounwind uwtable
define internal i32 @Vec_PtrSize(ptr noundef %0) #2 {
  %2 = alloca ptr, align 8
  store ptr %0, ptr %2, align 8, !tbaa !10
  %3 = load ptr, ptr %2, align 8, !tbaa !10
  %4 = getelementptr inbounds nuw %struct.Vec_Ptr_t_, ptr %3, i32 0, i32 1
  %5 = load i32, ptr %4, align 4, !tbaa !36
  ret i32 %5
}

; Function Attrs: inlinehint nounwind uwtable
define internal void @Abc_PrintTime(i32 noundef %0, ptr noundef %1, i64 noundef %2) #2 {
  %4 = alloca i32, align 4
  %5 = alloca ptr, align 8
  %6 = alloca i64, align 8
  store i32 %0, ptr %4, align 4, !tbaa !12
  store ptr %1, ptr %5, align 8, !tbaa !50
  store i64 %2, ptr %6, align 8, !tbaa !74
  %7 = load ptr, ptr %5, align 8, !tbaa !50
  call void (i32, ptr, ...) @Abc_Print(i32 noundef 1, ptr noundef @.str.17, ptr noundef %7)
  %8 = load i64, ptr %6, align 8, !tbaa !74
  %9 = sitofp i64 %8 to double
  %10 = fmul double 1.000000e+00, %9
  %11 = fdiv double %10, 1.000000e+06
  call void (i32, ptr, ...) @Abc_Print(i32 noundef 1, ptr noundef @.str.18, double noundef %11)
  ret void
}

; Function Attrs: inlinehint nounwind uwtable
define internal i32 @Saig_ManPoNum(ptr noundef %0) #2 {
  %2 = alloca ptr, align 8
  store ptr %0, ptr %2, align 8, !tbaa !3
  %3 = load ptr, ptr %2, align 8, !tbaa !3
  %4 = getelementptr inbounds nuw %struct.Aig_Man_t_, ptr %3, i32 0, i32 10
  %5 = load i32, ptr %4, align 8, !tbaa !35
  ret i32 %5
}

; Function Attrs: inlinehint nounwind uwtable
define internal i64 @Abc_Clock() #2 {
  %1 = alloca i64, align 8
  %2 = alloca %struct.timespec, align 8
  %3 = alloca i32, align 4
  %4 = alloca i64, align 8
  call void @llvm.lifetime.start.p0(i64 16, ptr %2) #9
  %5 = call i32 @clock_gettime(i32 noundef 1, ptr noundef %2) #9
  %6 = icmp slt i32 %5, 0
  br i1 %6, label %7, label %8

7:                                                ; preds = %0
  store i64 -1, ptr %1, align 8
  store i32 1, ptr %3, align 4
  br label %19

8:                                                ; preds = %0
  call void @llvm.lifetime.start.p0(i64 8, ptr %4) #9
  %9 = getelementptr inbounds nuw %struct.timespec, ptr %2, i32 0, i32 0
  %10 = load i64, ptr %9, align 8, !tbaa !95
  %11 = mul nsw i64 %10, 1000000
  store i64 %11, ptr %4, align 8, !tbaa !74
  %12 = getelementptr inbounds nuw %struct.timespec, ptr %2, i32 0, i32 1
  %13 = load i64, ptr %12, align 8, !tbaa !97
  %14 = mul nsw i64 %13, 1000000
  %15 = sdiv i64 %14, 1000000000
  %16 = load i64, ptr %4, align 8, !tbaa !74
  %17 = add nsw i64 %16, %15
  store i64 %17, ptr %4, align 8, !tbaa !74
  %18 = load i64, ptr %4, align 8, !tbaa !74
  store i64 %18, ptr %1, align 8
  store i32 1, ptr %3, align 4
  call void @llvm.lifetime.end.p0(i64 8, ptr %4) #9
  br label %19

19:                                               ; preds = %8, %7
  call void @llvm.lifetime.end.p0(i64 16, ptr %2) #9
  %20 = load i64, ptr %1, align 8
  ret i64 %20
}

; Function Attrs: nounwind uwtable
define ptr @Saig_ManIsoReduce(ptr noundef %0, ptr noundef %1, i32 noundef %2) #0 {
  %4 = alloca ptr, align 8
  %5 = alloca ptr, align 8
  %6 = alloca i32, align 4
  %7 = alloca ptr, align 8
  %8 = alloca i64, align 8
  store ptr %0, ptr %4, align 8, !tbaa !3
  store ptr %1, ptr %5, align 8, !tbaa !72
  store i32 %2, ptr %6, align 4, !tbaa !12
  call void @llvm.lifetime.start.p0(i64 8, ptr %7) #9
  call void @llvm.lifetime.start.p0(i64 8, ptr %8) #9
  %9 = call i64 @Abc_Clock()
  store i64 %9, ptr %8, align 8, !tbaa !74
  %10 = load ptr, ptr %4, align 8, !tbaa !3
  %11 = load ptr, ptr %5, align 8, !tbaa !72
  %12 = load i32, ptr %6, align 4, !tbaa !12
  %13 = call ptr @Iso_ManFilterPos(ptr noundef %10, ptr noundef %11, i32 noundef %12)
  store ptr %13, ptr %7, align 8, !tbaa !3
  %14 = load ptr, ptr %4, align 8, !tbaa !3
  %15 = call i32 @Saig_ManPoNum(ptr noundef %14)
  %16 = load ptr, ptr %7, align 8, !tbaa !3
  %17 = call i32 @Saig_ManPoNum(ptr noundef %16)
  %18 = call i32 (ptr, ...) @printf(ptr noundef @.str.13, i32 noundef %15, i32 noundef %17)
  %19 = call i64 @Abc_Clock()
  %20 = load i64, ptr %8, align 8, !tbaa !74
  %21 = sub nsw i64 %19, %20
  call void @Abc_PrintTime(i32 noundef 1, ptr noundef @.str.12, i64 noundef %21)
  %22 = load i32, ptr %6, align 4, !tbaa !12
  %23 = icmp ne i32 %22, 0
  br i1 %23, label %24, label %39

24:                                               ; preds = %3
  %25 = load ptr, ptr %5, align 8, !tbaa !72
  %26 = load ptr, ptr %25, align 8, !tbaa !10
  %27 = icmp ne ptr %26, null
  br i1 %27, label %28, label %39

28:                                               ; preds = %24
  %29 = load ptr, ptr %4, align 8, !tbaa !3
  %30 = call i32 @Saig_ManPoNum(ptr noundef %29)
  %31 = load ptr, ptr %5, align 8, !tbaa !72
  %32 = load ptr, ptr %31, align 8, !tbaa !10
  %33 = call i32 @Vec_PtrSize(ptr noundef %32)
  %34 = icmp ne i32 %30, %33
  br i1 %34, label %35, label %39

35:                                               ; preds = %28
  %36 = call i32 (ptr, ...) @printf(ptr noundef @.str.14)
  %37 = load ptr, ptr %5, align 8, !tbaa !72
  %38 = load ptr, ptr %37, align 8, !tbaa !10
  call void @Vec_VecPrintInt(ptr noundef %38, i32 noundef 1)
  br label %39

39:                                               ; preds = %35, %28, %24, %3
  %40 = load ptr, ptr %7, align 8, !tbaa !3
  call void @llvm.lifetime.end.p0(i64 8, ptr %8) #9
  call void @llvm.lifetime.end.p0(i64 8, ptr %7) #9
  ret ptr %40
}