; Function Attrs: nounwind uwtable
define ptr @Saig_ManIsoReduce(ptr noundef %0, ptr noundef captures(none) initializes((0, 8)) %1, i32 noundef %2) local_unnamed_addr #0 {
  %4 = alloca %struct.timespec, align 8
  %5 = alloca %struct.timespec, align 8
  call void @llvm.lifetime.start.p0(i64 16, ptr nonnull %5) #24
  %6 = call i32 @clock_gettime(i32 noundef 1, ptr noundef nonnull %5) #24
  %7 = icmp slt i32 %6, 0
  br i1 %7, label %Abc_Clock.exit, label %8

8:                                                ; preds = %3
  %9 = load i64, ptr %5, align 8, !tbaa !70
  %.neg18 = mul i64 %9, -1000000
  %10 = getelementptr inbounds nuw i8, ptr %5, i64 8
  %11 = load i64, ptr %10, align 8, !tbaa !72
  %.neg = sdiv i64 %11, -1000
  %.neg19 = add i64 %.neg, %.neg18
  br label %Abc_Clock.exit

Abc_Clock.exit:                                   ; preds = %3, %8
  %.0.i.neg = phi i64 [ %.neg19, %8 ], [ 1, %3 ]
  call void @llvm.lifetime.end.p0(i64 16, ptr nonnull %5) #24
  %12 = call ptr @Iso_ManFilterPos(ptr noundef %0, ptr noundef %1, i32 noundef %2)
  %13 = getelementptr i8, ptr %0, i64 112
  %.val14 = load i32, ptr %13, align 8, !tbaa !13
  %14 = getelementptr i8, ptr %12, i64 112
  %.val13 = load i32, ptr %14, align 8, !tbaa !13
  %15 = call i32 (ptr, ...) @printf(ptr noundef nonnull dereferenceable(1) @.str.13, i32 noundef %.val14, i32 noundef %.val13)
  call void @llvm.lifetime.start.p0(i64 16, ptr nonnull %4) #24
  %16 = call i32 @clock_gettime(i32 noundef 1, ptr noundef nonnull %4) #24
  %17 = icmp slt i32 %16, 0
  br i1 %17, label %Abc_Clock.exit17, label %18

18:                                               ; preds = %Abc_Clock.exit
  %19 = load i64, ptr %4, align 8, !tbaa !70
  %20 = mul nsw i64 %19, 1000000
  %21 = getelementptr inbounds nuw i8, ptr %4, i64 8
  %22 = load i64, ptr %21, align 8, !tbaa !72
  %23 = sdiv i64 %22, 1000
  %24 = add nsw i64 %23, %20
  br label %Abc_Clock.exit17

Abc_Clock.exit17:                                 ; preds = %Abc_Clock.exit, %18
  %.0.i16 = phi i64 [ %24, %18 ], [ -1, %Abc_Clock.exit ]
  call void @llvm.lifetime.end.p0(i64 16, ptr nonnull %4) #24
  %25 = add i64 %.0.i16, %.0.i.neg
  call void (i32, ptr, ...) @Abc_Print(i32 poison, ptr noundef nonnull @.str.17, ptr noundef nonnull @.str.12)
  %26 = sitofp i64 %25 to double
  %27 = fdiv double %26, 1.000000e+06
  call void (i32, ptr, ...) @Abc_Print(i32 poison, ptr noundef nonnull @.str.18, double noundef %27)
  %.not = icmp eq i32 %2, 0
  br i1 %.not, label %Vec_VecPrintInt.exit, label %28

28:                                               ; preds = %Abc_Clock.exit17
  %29 = load ptr, ptr %1, align 8, !tbaa !69
  %.not11 = icmp eq ptr %29, null
  br i1 %.not11, label %Vec_VecPrintInt.exit, label %30

30:                                               ; preds = %28
  %.val = load i32, ptr %13, align 8, !tbaa !13
  %31 = getelementptr i8, ptr %29, i64 4
  %.val15 = load i32, ptr %31, align 4, !tbaa !26
  %.not12 = icmp eq i32 %.val, %.val15
  br i1 %.not12, label %Vec_VecPrintInt.exit, label %32

32:                                               ; preds = %30
  %puts = call i32 @puts(ptr nonnull dereferenceable(1) @str.3)
  %33 = load ptr, ptr %1, align 8, !tbaa !69
  %34 = getelementptr i8, ptr %33, i64 4
  %.val2031.i = load i32, ptr %34, align 4, !tbaa !81
  %35 = icmp sgt i32 %.val2031.i, 0
  br i1 %35, label %.preheader.lr.ph.i, label %Vec_VecPrintInt.exit

.preheader.lr.ph.i:                               ; preds = %32
  %36 = getelementptr i8, ptr %33, i64 8
  %.val2126.pre.i = load ptr, ptr %36, align 8, !tbaa !77
  br label %.preheader.i

.preheader.i:                                     ; preds = %.critedge.i, %.preheader.lr.ph.i
  %.val20.pre.i23 = phi i32 [ %.val2031.i, %.preheader.lr.ph.i ], [ %.val20.pre.i24, %.critedge.i ]
  %.val2044.i = phi i32 [ %.val2031.i, %.preheader.lr.ph.i ], [ %.val20.i, %.critedge.i ]
  %.val2126.i = phi ptr [ %.val2126.pre.i, %.preheader.lr.ph.i ], [ %.val212637.i, %.critedge.i ]
  %indvars.iv34.i = phi i64 [ 0, %.preheader.lr.ph.i ], [ %indvars.iv.next35.i, %.critedge.i ]
  %37 = getelementptr inbounds nuw ptr, ptr %.val2126.i, i64 %indvars.iv34.i
  %38 = load ptr, ptr %37, align 8, !tbaa !31
  %39 = getelementptr i8, ptr %38, i64 4
  %.val27.i = load i32, ptr %39, align 4, !tbaa !7
  %40 = icmp sgt i32 %.val27.i, 0
  br i1 %40, label %.lr.ph.preheader.i, label %.critedge.i

.lr.ph.preheader.i:                               ; preds = %.preheader.i
  %41 = trunc nuw nsw i64 %indvars.iv34.i to i32
  %42 = icmp eq i32 %.val27.i, 1
  br i1 %42, label %.critedge.i, label %.lr.ph.preheader

.lr.ph.preheader:                                 ; preds = %.lr.ph.preheader.i
  %43 = getelementptr i8, ptr %38, i64 8
  %.val19.i20 = load ptr, ptr %43, align 8, !tbaa !12
  br label %.lr.ph

.lr.ph.i:                                         ; preds = %60
  %44 = getelementptr i8, ptr %61, i64 8
  %.val19.i = load ptr, ptr %44, align 8, !tbaa !12
  %45 = getelementptr inbounds nuw i32, ptr %.val19.i, i64 %indvars.iv.next.i
  %46 = icmp eq i32 %.val.i, 1
  br i1 %46, label %.critedge.loopexit.i.loopexit, label %.lr.ph, !llvm.loop !82

.lr.ph:                                           ; preds = %.lr.ph.preheader, %.lr.ph.i
  %.in = phi ptr [ %45, %.lr.ph.i ], [ %.val19.i20, %.lr.ph.preheader ]
  %indvars.iv.i21 = phi i64 [ %indvars.iv.next.i, %.lr.ph.i ], [ 0, %.lr.ph.preheader ]
  %47 = load i32, ptr %.in, align 4, !tbaa !3
  %48 = icmp eq i64 %indvars.iv.i21, 0
  br i1 %48, label %49, label %51

49:                                               ; preds = %.lr.ph
  %50 = call i32 (ptr, ...) @printf(ptr noundef nonnull dereferenceable(1) @.str.21, i32 noundef %41)
  br label %51

51:                                               ; preds = %49, %.lr.ph
  %52 = call i32 (ptr, ...) @printf(ptr noundef nonnull dereferenceable(1) @.str.22, i32 noundef %47)
  %.val24.i = load ptr, ptr %36, align 8, !tbaa !77
  %53 = getelementptr inbounds nuw ptr, ptr %.val24.i, i64 %indvars.iv34.i
  %54 = load ptr, ptr %53, align 8, !tbaa !31
  %55 = getelementptr i8, ptr %54, i64 4
  %.val.i25.i = load i32, ptr %55, align 4, !tbaa !26
  %56 = add nsw i32 %.val.i25.i, -1
  %57 = zext i32 %56 to i64
  %58 = icmp eq i64 %indvars.iv.i21, %57
  br i1 %58, label %59, label %60

59:                                               ; preds = %51
  %puts.i = call i32 @puts(ptr nonnull dereferenceable(1) @str.7)
  %.val21.pre.i = load ptr, ptr %36, align 8, !tbaa !77
  %.phi.trans.insert.i = getelementptr inbounds nuw ptr, ptr %.val21.pre.i, i64 %indvars.iv34.i
  %.pre.i = load ptr, ptr %.phi.trans.insert.i, align 8, !tbaa !31
  %.phi.trans.insert42.i = getelementptr i8, ptr %.pre.i, i64 4
  %.val.pre.i = load i32, ptr %.phi.trans.insert42.i, align 4, !tbaa !7
  br label %60

60:                                               ; preds = %59, %51
  %.val.i = phi i32 [ %.val.i25.i, %51 ], [ %.val.pre.i, %59 ]
  %61 = phi ptr [ %54, %51 ], [ %.pre.i, %59 ]
  %.val21.i = phi ptr [ %.val24.i, %51 ], [ %.val21.pre.i, %59 ]
  %indvars.iv.next.i = add nuw nsw i64 %indvars.iv.i21, 1
  %62 = sext i32 %.val.i to i64
  %63 = icmp slt i64 %indvars.iv.next.i, %62
  br i1 %63, label %.lr.ph.i, label %.critedge.loopexit.i.loopexit, !llvm.loop !82

.critedge.loopexit.i.loopexit:                    ; preds = %60, %.lr.ph.i
  %.val20.pre.i.pre = load i32, ptr %34, align 4, !tbaa !81
  br label %.critedge.i

.critedge.i:                                      ; preds = %.lr.ph.preheader.i, %.critedge.loopexit.i.loopexit, %.preheader.i
  %.val20.pre.i24 = phi i32 [ %.val20.pre.i23, %.preheader.i ], [ %.val20.pre.i23, %.lr.ph.preheader.i ], [ %.val20.pre.i.pre, %.critedge.loopexit.i.loopexit ]
  %.val20.i = phi i32 [ %.val2044.i, %.preheader.i ], [ %.val20.pre.i23, %.lr.ph.preheader.i ], [ %.val20.pre.i.pre, %.critedge.loopexit.i.loopexit ]
  %.val212637.i = phi ptr [ %.val2126.i, %.preheader.i ], [ %.val2126.i, %.lr.ph.preheader.i ], [ %.val21.i, %.critedge.loopexit.i.loopexit ]
  %indvars.iv.next35.i = add nuw nsw i64 %indvars.iv34.i, 1
  %64 = sext i32 %.val20.i to i64
  %65 = icmp slt i64 %indvars.iv.next35.i, %64
  br i1 %65, label %.preheader.i, label %Vec_VecPrintInt.exit, !llvm.loop !83

Vec_VecPrintInt.exit:                             ; preds = %.critedge.i, %32, %30, %28, %Abc_Clock.exit17
  ret ptr %12
}